target datalayout = "e-m:e-p270:32:32-p271:32:32-p272:64:64-i64:64-i128:128-f80:128-n8:16:32:64-S128"
target triple = "x86_64-pc-linux-gnu"

%struct.AVTXContext = type { i32, i32, ptr, ptr, ptr, ptr, [4 x ptr], i32, [4 x ptr], ptr, i32, i64, i32, float, double, ptr }

; Function Attrs: alwaysinline nounwind willreturn memory(none) uwtable
define internal i64 @av_clip64_c(i64 noundef %0, i64 noundef %1, i64 noundef %2) #2 {
  %4 = alloca i64, align 8
  %5 = alloca i64, align 8
  %6 = alloca i64, align 8
  %7 = alloca i64, align 8
  store i64 %0, ptr %5, align 8, !tbaa !30
  store i64 %1, ptr %6, align 8, !tbaa !30
  store i64 %2, ptr %7, align 8, !tbaa !30
  %8 = load i64, ptr %5, align 8, !tbaa !30
  %9 = load i64, ptr %6, align 8, !tbaa !30
  %10 = icmp slt i64 %8, %9
  br i1 %10, label %11, label %13

11:                                               ; preds = %3
  %12 = load i64, ptr %6, align 8, !tbaa !30
  store i64 %12, ptr %4, align 8
  br label %21

13:                                               ; preds = %3
  %14 = load i64, ptr %5, align 8, !tbaa !30
  %15 = load i64, ptr %7, align 8, !tbaa !30
  %16 = icmp sgt i64 %14, %15
  br i1 %16, label %17, label %19

17:                                               ; preds = %13
  %18 = load i64, ptr %7, align 8, !tbaa !30
  store i64 %18, ptr %4, align 8
  br label %21

19:                                               ; preds = %13
  %20 = load i64, ptr %5, align 8, !tbaa !30
  store i64 %20, ptr %4, align 8
  br label %21

21:                                               ; preds = %19, %17, %11
  %22 = load i64, ptr %4, align 8
  ret i64 %22
}

; Function Attrs: nounwind uwtable
define internal void @ff_tx_mdct_naive_fwd_int32_c(ptr noundef %0, ptr noundef %1, ptr noundef %2, i64 noundef %3) #4 {
  %5 = alloca ptr, align 8
  %6 = alloca ptr, align 8
  %7 = alloca ptr, align 8
  %8 = alloca i64, align 8
  %9 = alloca ptr, align 8
  %10 = alloca ptr, align 8
  %11 = alloca double, align 8
  %12 = alloca i32, align 4
  %13 = alloca double, align 8
  %14 = alloca i32, align 4
  %15 = alloca i32, align 4
  %16 = alloca double, align 8
  %17 = alloca i32, align 4
  %18 = alloca i32, align 4
  store ptr %0, ptr %5, align 8, !tbaa !17
  store ptr %1, ptr %6, align 8, !tbaa !8
  store ptr %2, ptr %7, align 8, !tbaa !8
  store i64 %3, ptr %8, align 8, !tbaa !30
  call void @llvm.lifetime.start.p0(i64 8, ptr %9) #10
  %19 = load ptr, ptr %7, align 8, !tbaa !8
  store ptr %19, ptr %9, align 8, !tbaa !19
  call void @llvm.lifetime.start.p0(i64 8, ptr %10) #10
  %20 = load ptr, ptr %6, align 8, !tbaa !8
  store ptr %20, ptr %10, align 8, !tbaa !19
  call void @llvm.lifetime.start.p0(i64 8, ptr %11) #10
  %21 = load ptr, ptr %5, align 8, !tbaa !17
  %22 = getelementptr inbounds nuw %struct.AVTXContext, ptr %21, i32 0, i32 14
  %23 = load double, ptr %22, align 8, !tbaa !28
  store double %23, ptr %11, align 8, !tbaa !29
  call void @llvm.lifetime.start.p0(i64 4, ptr %12) #10
  %24 = load ptr, ptr %5, align 8, !tbaa !17
  %25 = getelementptr inbounds nuw %struct.AVTXContext, ptr %24, i32 0, i32 0
  %26 = load i32, ptr %25, align 8, !tbaa !21
  store i32 %26, ptr %12, align 4, !tbaa !4
  call void @llvm.lifetime.start.p0(i64 8, ptr %13) #10
  %27 = load i32, ptr %12, align 4, !tbaa !4
  %28 = sitofp i32 %27 to double
  %29 = fmul nsz double 4.000000e+00, %28
  %30 = fdiv nsz double 0x400921FB54442D18, %29
  store double %30, ptr %13, align 8, !tbaa !29
  %31 = load i64, ptr %8, align 8, !tbaa !30
  %32 = udiv i64 %31, 4
  store i64 %32, ptr %8, align 8, !tbaa !30
  call void @llvm.lifetime.start.p0(i64 4, ptr %14) #10
  store i32 0, ptr %14, align 4, !tbaa !4
  br label %33

33:                                               ; preds = %87, %4
  %34 = load i32, ptr %14, align 4, !tbaa !4
  %35 = load i32, ptr %12, align 4, !tbaa !4
  %36 = icmp slt i32 %34, %35
  br i1 %36, label %38, label %37

37:                                               ; preds = %33
  store i32 2, ptr %15, align 4
  call void @llvm.lifetime.end.p0(i64 4, ptr %14) #10
  br label %90

38:                                               ; preds = %33
  call void @llvm.lifetime.start.p0(i64 8, ptr %16) #10
  store double 0.000000e+00, ptr %16, align 8, !tbaa !29
  call void @llvm.lifetime.start.p0(i64 4, ptr %17) #10
  store i32 0, ptr %17, align 4, !tbaa !4
  br label %39

39:                                               ; preds = %69, %38
  %40 = load i32, ptr %17, align 4, !tbaa !4
  %41 = load i32, ptr %12, align 4, !tbaa !4
  %42 = mul nsw i32 %41, 2
  %43 = icmp slt i32 %40, %42
  br i1 %43, label %45, label %44

44:                                               ; preds = %39
  store i32 5, ptr %15, align 4
  call void @llvm.lifetime.end.p0(i64 4, ptr %17) #10
  br label %72

45:                                               ; preds = %39
  call void @llvm.lifetime.start.p0(i64 4, ptr %18) #10
  %46 = load i32, ptr %17, align 4, !tbaa !4
  %47 = mul nsw i32 2, %46
  %48 = add nsw i32 %47, 1
  %49 = load i32, ptr %12, align 4, !tbaa !4
  %50 = add nsw i32 %48, %49
  %51 = load i32, ptr %14, align 4, !tbaa !4
  %52 = mul nsw i32 2, %51
  %53 = add nsw i32 %52, 1
  %54 = mul nsw i32 %50, %53
  store i32 %54, ptr %18, align 4, !tbaa !4
  %55 = load ptr, ptr %9, align 8, !tbaa !19
  %56 = load i32, ptr %17, align 4, !tbaa !4
  %57 = sext i32 %56 to i64
  %58 = getelementptr inbounds i32, ptr %55, i64 %57
  %59 = load i32, ptr %58, align 4, !tbaa !4
  %60 = sitofp i32 %59 to double
  %61 = fdiv nsz double %60, 0x41E0000000000000
  %62 = load i32, ptr %18, align 4, !tbaa !4
  %63 = sitofp i32 %62 to double
  %64 = load double, ptr %13, align 8, !tbaa !29
  %65 = fmul nsz double %63, %64
  %66 = call nsz double @llvm.cos.f64(double %65)
  %67 = load double, ptr %16, align 8, !tbaa !29
  %68 = call nsz double @llvm.fmuladd.f64(double %61, double %66, double %67)
  store double %68, ptr %16, align 8, !tbaa !29
  call void @llvm.lifetime.end.p0(i64 4, ptr %18) #10
  br label %69

69:                                               ; preds = %45
  %70 = load i32, ptr %17, align 4, !tbaa !4
  %71 = add nsw i32 %70, 1
  store i32 %71, ptr %17, align 4, !tbaa !4
  br label %39, !llvm.loop !141

72:                                               ; preds = %44
  %73 = load double, ptr %16, align 8, !tbaa !29
  %74 = load double, ptr %11, align 8, !tbaa !29
  %75 = fmul nsz double %73, %74
  %76 = fmul nsz double %75, 0x41E0000000000000
  %77 = fptrunc nsz double %76 to float
  %78 = call i64 @llvm.llrint.i64.f32(float %77)
  %79 = call i64 @av_clip64_c(i64 noundef %78, i64 noundef -2147483648, i64 noundef 2147483647) #11
  %80 = trunc i64 %79 to i32
  %81 = load ptr, ptr %10, align 8, !tbaa !19
  %82 = load i32, ptr %14, align 4, !tbaa !4
  %83 = sext i32 %82 to i64
  %84 = load i64, ptr %8, align 8, !tbaa !30
  %85 = mul nsw i64 %83, %84
  %86 = getelementptr inbounds i32, ptr %81, i64 %85
  store i32 %80, ptr %86, align 4, !tbaa !4
  call void @llvm.lifetime.end.p0(i64 8, ptr %16) #10
  br label %87

87:                                               ; preds = %72
  %88 = load i32, ptr %14, align 4, !tbaa !4
  %89 = add nsw i32 %88, 1
  store i32 %89, ptr %14, align 4, !tbaa !4
  br label %33, !llvm.loop !142

90:                                               ; preds = %37
  call void @llvm.lifetime.end.p0(i64 8, ptr %13) #10
  call void @llvm.lifetime.end.p0(i64 4, ptr %12) #10
  call void @llvm.lifetime.end.p0(i64 8, ptr %11) #10
  call void @llvm.lifetime.end.p0(i64 8, ptr %10) #10
  call void @llvm.lifetime.end.p0(i64 8, ptr %9) #10
  ret void
}